target datalayout = "e-m:e-p270:32:32-p271:32:32-p272:64:64-i64:64-i128:128-f80:128-n8:16:32:64-S128"
target triple = "x86_64-pc-linux-gnu"

%struct.GlyphInfo = type { float, float, i16, i16, i16, i8, float, float, ptr, ptr }
%struct._CacheCellInfo = type { ptr, ptr, ptr, ptr, i32, i32, i32, i32, i32, float, float, float, float }

; Function Attrs: nounwind uwtable
define hidden ptr @AccelGlyphCache_GetCellInfoForCache(ptr noundef %0, ptr noundef %1) #0 {
  %3 = alloca ptr, align 8
  %4 = alloca ptr, align 8
  %5 = alloca ptr, align 8
  %6 = alloca ptr, align 8
  store ptr %0, ptr %4, align 8
  store ptr %1, ptr %5, align 8
  %7 = load ptr, ptr %4, align 8
  %8 = getelementptr inbounds %struct.GlyphInfo, ptr %7, i32 0, i32 8
  %9 = load ptr, ptr %8, align 8
  %10 = icmp ne ptr %9, null
  br i1 %10, label %11, label %31

11:                                               ; preds = %2
  %12 = load ptr, ptr %4, align 8
  %13 = getelementptr inbounds %struct.GlyphInfo, ptr %12, i32 0, i32 8
  %14 = load ptr, ptr %13, align 8
  store ptr %14, ptr %6, align 8
  br label %15

15:                                               ; preds = %27, %11
  %16 = load ptr, ptr %6, align 8
  %17 = getelementptr inbounds %struct._CacheCellInfo, ptr %16, i32 0, i32 0
  %18 = load ptr, ptr %17, align 8
  %19 = load ptr, ptr %5, align 8
  %20 = icmp eq ptr %18, %19
  br i1 %20, label %21, label %23

21:                                               ; preds = %15
  %22 = load ptr, ptr %6, align 8
  store ptr %22, ptr %3, align 8
  br label %32

23:                                               ; preds = %15
  %24 = load ptr, ptr %6, align 8
  %25 = getelementptr inbounds %struct._CacheCellInfo, ptr %24, i32 0, i32 3
  %26 = load ptr, ptr %25, align 8
  store ptr %26, ptr %6, align 8
  br label %27

27:                                               ; preds = %23
  %28 = load ptr, ptr %6, align 8
  %29 = icmp ne ptr %28, null
  br i1 %29, label %15, label %30, !llvm.loop !12

30:                                               ; preds = %27
  br label %31

31:                                               ; preds = %30, %2
  store ptr null, ptr %3, align 8
  br label %32

32:                                               ; preds = %31, %21
  %33 = load ptr, ptr %3, align 8
  ret ptr %33
}