; Function Attrs: nofree norecurse nosync nounwind memory(read, inaccessiblemem: none) uwtable
define hidden noundef ptr @AccelGlyphCache_GetCellInfoForCache(ptr nocapture noundef readonly %0, ptr noundef readnone %1) local_unnamed_addr #6 {
  %3 = getelementptr inbounds i8, ptr %0, i64 24
  %4 = load ptr, ptr %3, align 8
  %.not = icmp eq ptr %4, null
  br i1 %.not, label %.loopexit, label %.preheader

.preheader:                                       ; preds = %2, %7
  %.0 = phi ptr [ %9, %7 ], [ %4, %2 ]
  %5 = load ptr, ptr %.0, align 8
  %6 = icmp eq ptr %5, %1
  br i1 %6, label %.loopexit, label %7

7:                                                ; preds = %.preheader
  %8 = getelementptr inbounds i8, ptr %.0, i64 24
  %9 = load ptr, ptr %8, align 8
  %.not11 = icmp eq ptr %9, null
  br i1 %.not11, label %.loopexit, label %.preheader, !llvm.loop !12

.loopexit:                                        ; preds = %7, %.preheader, %2
  %.08 = phi ptr [ null, %2 ], [ null, %7 ], [ %.0, %.preheader ]
  ret ptr %.08
}